target datalayout = "e-m:e-p270:32:32-p271:32:32-p272:64:64-i64:64-i128:128-f80:128-n8:16:32:64-S128"
target triple = "x86_64-pc-linux-gnu"

%struct.PJconsts = type { ptr, ptr, ptr, ptr, ptr, ptr, ptr, ptr, ptr, ptr, ptr, ptr, i32, ptr, ptr, ptr, ptr, ptr, ptr, ptr, ptr, double, double, double, double, double, double, double, double, double, double, double, double, double, double, double, double, double, double, double, double, double, double, i32, i32, i32, i32, i32, i32, i32, i32, i32, i32, i32, ptr, ptr, ptr, ptr, ptr, ptr, double, double, double, double, double, double, double, double, double, double, double, i32, [7 x double], i32, ptr, ptr, double, double, i32, [4 x i8], %"class.std::shared_ptr", i8, double, i8, %"class.std::__cxx11::basic_string", %"class.std::__cxx11::basic_string", %"class.std::__cxx11::basic_string", i8, %"class.std::vector", i32, %"class.std::vector.3", i32, i8, i8, i8, ptr }
%"class.std::shared_ptr" = type { %"class.std::__shared_ptr" }
%"class.std::__shared_ptr" = type { ptr, %"class.std::__shared_count" }
%"class.std::__shared_count" = type { ptr }
%"class.std::__cxx11::basic_string" = type { %"struct.std::__cxx11::basic_string<char>::_Alloc_hider", i64, %union.anon }
%"struct.std::__cxx11::basic_string<char>::_Alloc_hider" = type { ptr }
%union.anon = type { i64, [8 x i8] }
%"class.std::vector" = type { %"struct.std::_Vector_base" }
%"struct.std::_Vector_base" = type { %"struct.std::_Vector_base<osgeo::proj::operation::GridDescription, std::allocator<osgeo::proj::operation::GridDescription>>::_Vector_impl" }
%"struct.std::_Vector_base<osgeo::proj::operation::GridDescription, std::allocator<osgeo::proj::operation::GridDescription>>::_Vector_impl" = type { %"struct.std::_Vector_base<osgeo::proj::operation::GridDescription, std::allocator<osgeo::proj::operation::GridDescription>>::_Vector_impl_data" }
%"struct.std::_Vector_base<osgeo::proj::operation::GridDescription, std::allocator<osgeo::proj::operation::GridDescription>>::_Vector_impl_data" = type { ptr, ptr, ptr }
%"class.std::vector.3" = type { %"struct.std::_Vector_base.4" }
%"struct.std::_Vector_base.4" = type { %"struct.std::_Vector_base<PJCoordOperation, std::allocator<PJCoordOperation>>::_Vector_impl" }
%"struct.std::_Vector_base<PJCoordOperation, std::allocator<PJCoordOperation>>::_Vector_impl" = type { %"struct.std::_Vector_base<PJCoordOperation, std::allocator<PJCoordOperation>>::_Vector_impl_data" }
%"struct.std::_Vector_base<PJCoordOperation, std::allocator<PJCoordOperation>>::_Vector_impl_data" = type { ptr, ptr, ptr }
%"struct.(anonymous namespace)::pj_qsc_data" = type { i32, double, double, double, double }

@_ZL7des_qsc = internal constant [43 x i8] c"Quadrilateralized Spherical Cube\0A\09Azi, Sph\00", align 16
@.str = private unnamed_addr constant [4 x i8] c"qsc\00", align 1

; Function Attrs: mustprogress uwtable
define hidden noundef ptr @_Z32pj_projection_specific_setup_qscP8PJconsts(ptr noundef %0) #0 {
  %2 = alloca ptr, align 8
  %3 = alloca ptr, align 8
  %4 = alloca ptr, align 8
  %5 = alloca i32, align 4
  store ptr %0, ptr %3, align 8, !tbaa !3
  call void @llvm.lifetime.start.p0(i64 8, ptr %4) #8
  %6 = call noalias ptr @calloc(i64 noundef 1, i64 noundef 40) #9
  store ptr %6, ptr %4, align 8, !tbaa !41
  %7 = load ptr, ptr %4, align 8, !tbaa !41
  %8 = icmp eq ptr null, %7
  br i1 %8, label %9, label %12

9:                                                ; preds = %1
  %10 = load ptr, ptr %3, align 8, !tbaa !3
  %11 = call noundef ptr @_Z21pj_default_destructorP8PJconstsi(ptr noundef %10, i32 noundef 4096)
  store ptr %11, ptr %2, align 8
  store i32 1, ptr %5, align 4
  br label %115

12:                                               ; preds = %1
  %13 = load ptr, ptr %4, align 8, !tbaa !41
  %14 = load ptr, ptr %3, align 8, !tbaa !3
  %15 = getelementptr inbounds nuw %struct.PJconsts, ptr %14, i32 0, i32 11
  store ptr %13, ptr %15, align 8, !tbaa !43
  %16 = load ptr, ptr %3, align 8, !tbaa !3
  %17 = getelementptr inbounds nuw %struct.PJconsts, ptr %16, i32 0, i32 14
  store ptr @_ZL13qsc_e_inverse5PJ_XYP8PJconsts, ptr %17, align 8, !tbaa !44
  %18 = load ptr, ptr %3, align 8, !tbaa !3
  %19 = getelementptr inbounds nuw %struct.PJconsts, ptr %18, i32 0, i32 13
  store ptr @_ZL13qsc_e_forward5PJ_LPP8PJconsts, ptr %19, align 8, !tbaa !45
  %20 = load ptr, ptr %3, align 8, !tbaa !3
  %21 = getelementptr inbounds nuw %struct.PJconsts, ptr %20, i32 0, i32 61
  %22 = load double, ptr %21, align 8, !tbaa !46
  %23 = fcmp oge double %22, 0x3FF2D97C7F3321D2
  br i1 %23, label %24, label %27

24:                                               ; preds = %12
  %25 = load ptr, ptr %4, align 8, !tbaa !41
  %26 = getelementptr inbounds nuw %"struct.(anonymous namespace)::pj_qsc_data", ptr %25, i32 0, i32 0
  store i32 4, ptr %26, align 8, !tbaa !47
  br label %64

27:                                               ; preds = %12
  %28 = load ptr, ptr %3, align 8, !tbaa !3
  %29 = getelementptr inbounds nuw %struct.PJconsts, ptr %28, i32 0, i32 61
  %30 = load double, ptr %29, align 8, !tbaa !46
  %31 = fcmp ole double %30, 0xBFF2D97C7F3321D2
  br i1 %31, label %32, label %35

32:                                               ; preds = %27
  %33 = load ptr, ptr %4, align 8, !tbaa !41
  %34 = getelementptr inbounds nuw %"struct.(anonymous namespace)::pj_qsc_data", ptr %33, i32 0, i32 0
  store i32 5, ptr %34, align 8, !tbaa !47
  br label %63

35:                                               ; preds = %27
  %36 = load ptr, ptr %3, align 8, !tbaa !3
  %37 = getelementptr inbounds nuw %struct.PJconsts, ptr %36, i32 0, i32 60
  %38 = load double, ptr %37, align 8, !tbaa !50
  %39 = call double @llvm.fabs.f64(double %38)
  %40 = fcmp ole double %39, 0x3FE921FB54442D18
  br i1 %40, label %41, label %44

41:                                               ; preds = %35
  %42 = load ptr, ptr %4, align 8, !tbaa !41
  %43 = getelementptr inbounds nuw %"struct.(anonymous namespace)::pj_qsc_data", ptr %42, i32 0, i32 0
  store i32 0, ptr %43, align 8, !tbaa !47
  br label %62

44:                                               ; preds = %35
  %45 = load ptr, ptr %3, align 8, !tbaa !3
  %46 = getelementptr inbounds nuw %struct.PJconsts, ptr %45, i32 0, i32 60
  %47 = load double, ptr %46, align 8, !tbaa !50
  %48 = call double @llvm.fabs.f64(double %47)
  %49 = fcmp ole double %48, 0x4002D97C7F3321D2
  br i1 %49, label %50, label %58

50:                                               ; preds = %44
  %51 = load ptr, ptr %3, align 8, !tbaa !3
  %52 = getelementptr inbounds nuw %struct.PJconsts, ptr %51, i32 0, i32 60
  %53 = load double, ptr %52, align 8, !tbaa !50
  %54 = fcmp ogt double %53, 0.000000e+00
  %55 = select i1 %54, i32 1, i32 3
  %56 = load ptr, ptr %4, align 8, !tbaa !41
  %57 = getelementptr inbounds nuw %"struct.(anonymous namespace)::pj_qsc_data", ptr %56, i32 0, i32 0
  store i32 %55, ptr %57, align 8, !tbaa !47
  br label %61

58:                                               ; preds = %44
  %59 = load ptr, ptr %4, align 8, !tbaa !41
  %60 = getelementptr inbounds nuw %"struct.(anonymous namespace)::pj_qsc_data", ptr %59, i32 0, i32 0
  store i32 2, ptr %60, align 8, !tbaa !47
  br label %61

61:                                               ; preds = %58, %50
  br label %62

62:                                               ; preds = %61, %41
  br label %63

63:                                               ; preds = %62, %32
  br label %64

64:                                               ; preds = %63, %24
  %65 = load ptr, ptr %3, align 8, !tbaa !3
  %66 = getelementptr inbounds nuw %struct.PJconsts, ptr %65, i32 0, i32 27
  %67 = load double, ptr %66, align 8, !tbaa !51
  %68 = fcmp une double %67, 0.000000e+00
  br i1 %68, label %69, label %113

69:                                               ; preds = %64
  %70 = load ptr, ptr %3, align 8, !tbaa !3
  %71 = getelementptr inbounds nuw %struct.PJconsts, ptr %70, i32 0, i32 21
  %72 = load double, ptr %71, align 8, !tbaa !52
  %73 = load ptr, ptr %3, align 8, !tbaa !3
  %74 = getelementptr inbounds nuw %struct.PJconsts, ptr %73, i32 0, i32 21
  %75 = load double, ptr %74, align 8, !tbaa !52
  %76 = fmul double %72, %75
  %77 = load ptr, ptr %4, align 8, !tbaa !41
  %78 = getelementptr inbounds nuw %"struct.(anonymous namespace)::pj_qsc_data", ptr %77, i32 0, i32 1
  store double %76, ptr %78, align 8, !tbaa !53
  %79 = load ptr, ptr %3, align 8, !tbaa !3
  %80 = getelementptr inbounds nuw %struct.PJconsts, ptr %79, i32 0, i32 21
  %81 = load double, ptr %80, align 8, !tbaa !52
  %82 = load ptr, ptr %3, align 8, !tbaa !3
  %83 = getelementptr inbounds nuw %struct.PJconsts, ptr %82, i32 0, i32 27
  %84 = load double, ptr %83, align 8, !tbaa !51
  %85 = fsub double 1.000000e+00, %84
  %86 = call double @sqrt(double noundef %85) #8, !tbaa !54
  %87 = fmul double %81, %86
  %88 = load ptr, ptr %4, align 8, !tbaa !41
  %89 = getelementptr inbounds nuw %"struct.(anonymous namespace)::pj_qsc_data", ptr %88, i32 0, i32 2
  store double %87, ptr %89, align 8, !tbaa !55
  %90 = load ptr, ptr %3, align 8, !tbaa !3
  %91 = getelementptr inbounds nuw %struct.PJconsts, ptr %90, i32 0, i32 21
  %92 = load double, ptr %91, align 8, !tbaa !52
  %93 = load ptr, ptr %4, align 8, !tbaa !41
  %94 = getelementptr inbounds nuw %"struct.(anonymous namespace)::pj_qsc_data", ptr %93, i32 0, i32 2
  %95 = load double, ptr %94, align 8, !tbaa !55
  %96 = fsub double %92, %95
  %97 = load ptr, ptr %3, align 8, !tbaa !3
  %98 = getelementptr inbounds nuw %struct.PJconsts, ptr %97, i32 0, i32 21
  %99 = load double, ptr %98, align 8, !tbaa !52
  %100 = fdiv double %96, %99
  %101 = fsub double 1.000000e+00, %100
  %102 = load ptr, ptr %4, align 8, !tbaa !41
  %103 = getelementptr inbounds nuw %"struct.(anonymous namespace)::pj_qsc_data", ptr %102, i32 0, i32 3
  store double %101, ptr %103, align 8, !tbaa !56
  %104 = load ptr, ptr %4, align 8, !tbaa !41
  %105 = getelementptr inbounds nuw %"struct.(anonymous namespace)::pj_qsc_data", ptr %104, i32 0, i32 3
  %106 = load double, ptr %105, align 8, !tbaa !56
  %107 = load ptr, ptr %4, align 8, !tbaa !41
  %108 = getelementptr inbounds nuw %"struct.(anonymous namespace)::pj_qsc_data", ptr %107, i32 0, i32 3
  %109 = load double, ptr %108, align 8, !tbaa !56
  %110 = fmul double %106, %109
  %111 = load ptr, ptr %4, align 8, !tbaa !41
  %112 = getelementptr inbounds nuw %"struct.(anonymous namespace)::pj_qsc_data", ptr %111, i32 0, i32 4
  store double %110, ptr %112, align 8, !tbaa !57
  br label %113

113:                                              ; preds = %69, %64
  %114 = load ptr, ptr %3, align 8, !tbaa !3
  store ptr %114, ptr %2, align 8
  store i32 1, ptr %5, align 4
  br label %115

115:                                              ; preds = %113, %9
  call void @llvm.lifetime.end.p0(i64 8, ptr %4) #8
  %116 = load ptr, ptr %2, align 8
  ret ptr %116
}

; Function Attrs: mustprogress uwtable
define hidden ptr @pj_qsc(ptr noundef %0) #0 {
  %2 = alloca ptr, align 8
  %3 = alloca ptr, align 8
  store ptr %0, ptr %3, align 8, !tbaa !3
  %4 = load ptr, ptr %3, align 8, !tbaa !3
  %5 = icmp ne ptr %4, null
  br i1 %5, label %6, label %9

6:                                                ; preds = %1
  %7 = load ptr, ptr %3, align 8, !tbaa !3
  %8 = call noundef ptr @_Z32pj_projection_specific_setup_qscP8PJconsts(ptr noundef %7)
  store ptr %8, ptr %2, align 8
  br label %26

9:                                                ; preds = %1
  %10 = call noundef ptr @_Z6pj_newv()
  store ptr %10, ptr %3, align 8, !tbaa !3
  %11 = load ptr, ptr %3, align 8, !tbaa !3
  %12 = icmp eq ptr null, %11
  br i1 %12, label %13, label %14

13:                                               ; preds = %9
  store ptr null, ptr %2, align 8
  br label %26

14:                                               ; preds = %9
  %15 = load ptr, ptr %3, align 8, !tbaa !3
  %16 = getelementptr inbounds nuw %struct.PJconsts, ptr %15, i32 0, i32 1
  store ptr @.str, ptr %16, align 8, !tbaa !8
  %17 = load ptr, ptr %3, align 8, !tbaa !3
  %18 = getelementptr inbounds nuw %struct.PJconsts, ptr %17, i32 0, i32 2
  store ptr @_ZL7des_qsc, ptr %18, align 8, !tbaa !37
  %19 = load ptr, ptr %3, align 8, !tbaa !3
  %20 = getelementptr inbounds nuw %struct.PJconsts, ptr %19, i32 0, i32 47
  store i32 1, ptr %20, align 8, !tbaa !38
  %21 = load ptr, ptr %3, align 8, !tbaa !3
  %22 = getelementptr inbounds nuw %struct.PJconsts, ptr %21, i32 0, i32 52
  store i32 4, ptr %22, align 4, !tbaa !39
  %23 = load ptr, ptr %3, align 8, !tbaa !3
  %24 = getelementptr inbounds nuw %struct.PJconsts, ptr %23, i32 0, i32 53
  store i32 1, ptr %24, align 8, !tbaa !40
  %25 = load ptr, ptr %3, align 8, !tbaa !3
  store ptr %25, ptr %2, align 8
  br label %26

26:                                               ; preds = %14, %13, %6
  %27 = load ptr, ptr %2, align 8
  ret ptr %27
}