; Function Attrs: mustprogress uwtable
define hidden noundef ptr @pj_qsc(ptr noundef %0) local_unnamed_addr #0 {
  %.not = icmp eq ptr %0, null
  br i1 %.not, label %45, label %2

2:                                                ; preds = %1
  %3 = tail call noalias dereferenceable_or_null(40) ptr @calloc(i64 noundef 1, i64 noundef 40) #7
  %4 = icmp eq ptr %3, null
  br i1 %4, label %5, label %7

5:                                                ; preds = %2
  %6 = tail call noundef ptr @_Z21pj_default_destructorP8PJconstsi(ptr noundef nonnull %0, i32 noundef 4096)
  br label %_Z32pj_projection_specific_setup_qscP8PJconsts.exit

7:                                                ; preds = %2
  %8 = getelementptr inbounds nuw i8, ptr %0, i64 88
  store ptr %3, ptr %8, align 8, !tbaa !3
  %9 = getelementptr inbounds nuw i8, ptr %0, i64 112
  store ptr @_ZL13qsc_e_inverse5PJ_XYP8PJconsts, ptr %9, align 8, !tbaa !36
  %10 = getelementptr inbounds nuw i8, ptr %0, i64 104
  store ptr @_ZL13qsc_e_forward5PJ_LPP8PJconsts, ptr %10, align 8, !tbaa !37
  %11 = getelementptr inbounds nuw i8, ptr %0, i64 448
  %12 = load double, ptr %11, align 8, !tbaa !38
  %13 = fcmp ult double %12, 0x3FF2D97C7F3321D2
  br i1 %13, label %14, label %.sink.split.i

14:                                               ; preds = %7
  %15 = fcmp ugt double %12, 0xBFF2D97C7F3321D2
  br i1 %15, label %16, label %.sink.split.i

16:                                               ; preds = %14
  %17 = getelementptr inbounds nuw i8, ptr %0, i64 440
  %18 = load double, ptr %17, align 8, !tbaa !39
  %19 = tail call double @llvm.fabs.f64(double %18)
  %20 = fcmp ugt double %19, 0x3FE921FB54442D18
  br i1 %20, label %21, label %26

21:                                               ; preds = %16
  %22 = fcmp ugt double %19, 0x4002D97C7F3321D2
  br i1 %22, label %.sink.split.i, label %23

23:                                               ; preds = %21
  %24 = fcmp ogt double %18, 0.000000e+00
  %25 = select i1 %24, i32 1, i32 3
  br label %.sink.split.i

.sink.split.i:                                    ; preds = %23, %21, %14, %7
  %.sink.i = phi i32 [ %25, %23 ], [ 4, %7 ], [ 5, %14 ], [ 2, %21 ]
  store i32 %.sink.i, ptr %3, align 8, !tbaa !40
  br label %26

26:                                               ; preds = %.sink.split.i, %16
  %27 = getelementptr inbounds nuw i8, ptr %0, i64 216
  %28 = load double, ptr %27, align 8, !tbaa !43
  %29 = fcmp une double %28, 0.000000e+00
  br i1 %29, label %30, label %_Z32pj_projection_specific_setup_qscP8PJconsts.exit

30:                                               ; preds = %26
  %31 = getelementptr inbounds nuw i8, ptr %0, i64 168
  %32 = load double, ptr %31, align 8, !tbaa !44
  %33 = fmul double %32, %32
  %34 = getelementptr inbounds nuw i8, ptr %3, i64 8
  store double %33, ptr %34, align 8, !tbaa !45
  %35 = fsub double 1.000000e+00, %28
  %36 = tail call double @sqrt(double noundef %35) #8, !tbaa !46
  %37 = fmul double %32, %36
  %38 = getelementptr inbounds nuw i8, ptr %3, i64 16
  store double %37, ptr %38, align 8, !tbaa !47
  %39 = fsub double %32, %37
  %40 = fdiv double %39, %32
  %41 = fsub double 1.000000e+00, %40
  %42 = getelementptr inbounds nuw i8, ptr %3, i64 24
  store double %41, ptr %42, align 8, !tbaa !48
  %43 = fmul double %41, %41
  %44 = getelementptr inbounds nuw i8, ptr %3, i64 32
  store double %43, ptr %44, align 8, !tbaa !49
  br label %_Z32pj_projection_specific_setup_qscP8PJconsts.exit

45:                                               ; preds = %1
  %46 = tail call noundef ptr @_Z6pj_newv()
  %47 = icmp eq ptr %46, null
  br i1 %47, label %_Z32pj_projection_specific_setup_qscP8PJconsts.exit, label %48

48:                                               ; preds = %45
  %49 = getelementptr inbounds nuw i8, ptr %46, i64 8
  store ptr @.str, ptr %49, align 8, !tbaa !50
  %50 = getelementptr inbounds nuw i8, ptr %46, i64 16
  store ptr @_ZL7des_qsc, ptr %50, align 8, !tbaa !51
  %51 = getelementptr inbounds nuw i8, ptr %46, i64 360
  store i32 1, ptr %51, align 8, !tbaa !52
  %52 = getelementptr inbounds nuw i8, ptr %46, i64 380
  store i32 4, ptr %52, align 4, !tbaa !53
  %53 = getelementptr inbounds nuw i8, ptr %46, i64 384
  store i32 1, ptr %53, align 8, !tbaa !54
  br label %_Z32pj_projection_specific_setup_qscP8PJconsts.exit

_Z32pj_projection_specific_setup_qscP8PJconsts.exit: ; preds = %30, %26, %5, %45, %48
  %.0 = phi ptr [ %46, %48 ], [ null, %45 ], [ %6, %5 ], [ %0, %30 ], [ %0, %26 ]
  ret ptr %.0
}